target datalayout = "e-m:e-p270:32:32-p271:32:32-p272:64:64-i64:64-i128:128-f80:128-n8:16:32:64-S128"
target triple = "x86_64-pc-linux-gnu"

%"class.llvm::StringRef" = type { ptr, i64 }
%"class.llvm::SmallVectorBase" = type { ptr, i32, i32 }
%"class.llvm::SmallVectorImpl.141" = type { %"class.llvm::SmallVectorTemplateBase.142" }
%"class.llvm::SmallVectorTemplateBase.142" = type { %"class.llvm::SmallVectorTemplateCommon.143" }
%"class.llvm::SmallVectorTemplateCommon.143" = type { %"class.llvm::SmallVectorBase" }
%"class.llvm::SmallVector.415" = type { %"class.llvm::SmallVectorImpl.141", %"struct.llvm::SmallVectorStorage.416" }
%"struct.llvm::SmallVectorStorage.416" = type { [256 x i8] }

; Function Attrs: mustprogress nounwind uwtable
define linkonce_odr hidden void @_ZN4llvm25SmallVectorTemplateCommonIjvE8grow_podEmm(ptr noundef nonnull align 8 dereferenceable(16) %0, i64 noundef %1, i64 noundef %2) #1 comdat align 2 {
  %4 = alloca ptr, align 8
  %5 = alloca i64, align 8
  %6 = alloca i64, align 8
  store ptr %0, ptr %4, align 8
  store i64 %1, ptr %5, align 8
  store i64 %2, ptr %6, align 8
  %7 = load ptr, ptr %4, align 8
  %8 = call noundef ptr @_ZNK4llvm25SmallVectorTemplateCommonIjvE10getFirstElEv(ptr noundef nonnull align 8 dereferenceable(16) %7)
  %9 = load i64, ptr %5, align 8
  %10 = load i64, ptr %6, align 8
  call void @_ZN4llvm15SmallVectorBaseIjE8grow_podEPvmm(ptr noundef nonnull align 8 dereferenceable(16) %7, ptr noundef %8, i64 noundef %9, i64 noundef %10)
  ret void
}

; Function Attrs: mustprogress nounwind uwtable
define linkonce_odr hidden noundef ptr @_ZNK4llvm25SmallVectorTemplateCommonIjvE10getFirstElEv(ptr noundef nonnull align 8 dereferenceable(16) %0) #1 comdat align 2 {
  %2 = alloca ptr, align 8
  store ptr %0, ptr %2, align 8
  %3 = load ptr, ptr %2, align 8
  %4 = getelementptr inbounds i8, ptr %3, i64 16
  ret ptr %4
}

; Function Attrs: mustprogress nounwind uwtable
define linkonce_odr hidden void @_ZN4llvm23SmallVectorTemplateBaseIjLb1EE4growEm(ptr noundef nonnull align 8 dereferenceable(16) %0, i64 noundef %1) #1 comdat align 2 {
  %3 = alloca ptr, align 8
  %4 = alloca i64, align 8
  store ptr %0, ptr %3, align 8
  store i64 %1, ptr %4, align 8
  %5 = load ptr, ptr %3, align 8
  %6 = load i64, ptr %4, align 8
  call void @_ZN4llvm25SmallVectorTemplateCommonIjvE8grow_podEmm(ptr noundef nonnull align 8 dereferenceable(16) %5, i64 noundef %6, i64 noundef 4)
  ret void
}

; Function Attrs: mustprogress nounwind uwtable
define linkonce_odr hidden noundef zeroext i1 @_ZN4llvm7isUpperEc(i8 noundef signext %0) #1 comdat {
  %2 = alloca i8, align 1
  store i8 %0, ptr %2, align 1
  %3 = load i8, ptr %2, align 1
  %4 = sext i8 %3 to i32
  %5 = icmp sle i32 65, %4
  br i1 %5, label %6, label %10

6:                                                ; preds = %1
  %7 = load i8, ptr %2, align 1
  %8 = sext i8 %7 to i32
  %9 = icmp sle i32 %8, 90
  br label %10

10:                                               ; preds = %6, %1
  %11 = phi i1 [ false, %1 ], [ %9, %6 ]
  ret i1 %11
}

; Function Attrs: mustprogress nounwind uwtable
define linkonce_odr hidden noundef zeroext i1 @_ZN4llvm7isLowerEc(i8 noundef signext %0) #1 comdat {
  %2 = alloca i8, align 1
  store i8 %0, ptr %2, align 1
  %3 = load i8, ptr %2, align 1
  %4 = sext i8 %3 to i32
  %5 = icmp sle i32 97, %4
  br i1 %5, label %6, label %10

6:                                                ; preds = %1
  %7 = load i8, ptr %2, align 1
  %8 = sext i8 %7 to i32
  %9 = icmp sle i32 %8, 122
  br label %10

10:                                               ; preds = %6, %1
  %11 = phi i1 [ false, %1 ], [ %9, %6 ]
  ret i1 %11
}

; Function Attrs: mustprogress nounwind uwtable
define linkonce_odr hidden void @_ZN4llvm25SmallVectorTemplateCommonIjvEC2Em(ptr noundef nonnull align 8 dereferenceable(16) %0, i64 noundef %1) unnamed_addr #1 comdat align 2 {
  %3 = alloca ptr, align 8
  %4 = alloca i64, align 8
  store ptr %0, ptr %3, align 8
  store i64 %1, ptr %4, align 8
  %5 = load ptr, ptr %3, align 8
  %6 = call noundef ptr @_ZNK4llvm25SmallVectorTemplateCommonIjvE10getFirstElEv(ptr noundef nonnull align 8 dereferenceable(16) %5)
  %7 = load i64, ptr %4, align 8
  call void @_ZN4llvm15SmallVectorBaseIjEC2EPvm(ptr noundef nonnull align 8 dereferenceable(16) %5, ptr noundef %6, i64 noundef %7)
  ret void
}

; Function Attrs: mustprogress nounwind uwtable
define linkonce_odr hidden noundef zeroext i1 @_ZNK4llvm25SmallVectorTemplateCommonIjvE7isSmallEv(ptr noundef nonnull align 8 dereferenceable(16) %0) #1 comdat align 2 {
  %2 = alloca ptr, align 8
  store ptr %0, ptr %2, align 8
  %3 = load ptr, ptr %2, align 8
  %4 = getelementptr inbounds nuw %"class.llvm::SmallVectorBase", ptr %3, i32 0, i32 0
  %5 = load ptr, ptr %4, align 8
  %6 = call noundef ptr @_ZNK4llvm25SmallVectorTemplateCommonIjvE10getFirstElEv(ptr noundef nonnull align 8 dereferenceable(16) %3)
  %7 = icmp eq ptr %5, %6
  ret i1 %7
}

; Function Attrs: mustprogress nounwind uwtable
define linkonce_odr hidden noundef ptr @_ZN4llvm25SmallVectorTemplateCommonIjvE32reserveForParamAndGetAddressImplINS_23SmallVectorTemplateBaseIjLb1EEEEEPKjPT_RS5_m(ptr noundef %0, ptr noundef nonnull align 4 dereferenceable(4) %1, i64 noundef %2) #1 comdat align 2 {
  %4 = alloca ptr, align 8
  %5 = alloca ptr, align 8
  %6 = alloca ptr, align 8
  %7 = alloca i64, align 8
  %8 = alloca i64, align 8
  %9 = alloca i8, align 1
  %10 = alloca i64, align 8
  store ptr %0, ptr %5, align 8
  store ptr %1, ptr %6, align 8
  store i64 %2, ptr %7, align 8
  %11 = load ptr, ptr %5, align 8
  %12 = call noundef i64 @_ZNK4llvm15SmallVectorBaseIjE4sizeEv(ptr noundef nonnull align 8 dereferenceable(16) %11)
  %13 = load i64, ptr %7, align 8
  %14 = add i64 %12, %13
  store i64 %14, ptr %8, align 8
  %15 = load i64, ptr %8, align 8
  %16 = load ptr, ptr %5, align 8
  %17 = call noundef i64 @_ZNK4llvm15SmallVectorBaseIjE8capacityEv(ptr noundef nonnull align 8 dereferenceable(16) %16)
  %18 = icmp ule i64 %15, %17
  br i1 %18, label %19, label %21

19:                                               ; preds = %3
  %20 = load ptr, ptr %6, align 8
  store ptr %20, ptr %4, align 8
  br label %35

21:                                               ; preds = %3
  store i8 0, ptr %9, align 1
  store i64 -1, ptr %10, align 8
  %22 = load ptr, ptr %5, align 8
  %23 = load i64, ptr %8, align 8
  call void @_ZN4llvm23SmallVectorTemplateBaseIjLb1EE4growEm(ptr noundef nonnull align 8 dereferenceable(16) %22, i64 noundef %23)
  %24 = load i8, ptr %9, align 1
  %25 = trunc i8 %24 to i1
  br i1 %25, label %26, label %31

26:                                               ; preds = %21
  %27 = load ptr, ptr %5, align 8
  %28 = call noundef ptr @_ZN4llvm25SmallVectorTemplateCommonIjvE5beginEv(ptr noundef nonnull align 8 dereferenceable(16) %27)
  %29 = load i64, ptr %10, align 8
  %30 = getelementptr inbounds i32, ptr %28, i64 %29
  br label %33

31:                                               ; preds = %21
  %32 = load ptr, ptr %6, align 8
  br label %33

33:                                               ; preds = %31, %26
  %34 = phi ptr [ %30, %26 ], [ %32, %31 ]
  store ptr %34, ptr %4, align 8
  br label %35

35:                                               ; preds = %33, %19
  %36 = load ptr, ptr %4, align 8
  ret ptr %36
}

; Function Attrs: mustprogress nounwind uwtable
define linkonce_odr hidden noundef zeroext i1 @_ZN4llvm7isDigitEc(i8 noundef signext %0) #1 comdat {
  %2 = alloca i8, align 1
  store i8 %0, ptr %2, align 1
  %3 = load i8, ptr %2, align 1
  %4 = sext i8 %3 to i32
  %5 = icmp sge i32 %4, 48
  br i1 %5, label %6, label %10

6:                                                ; preds = %1
  %7 = load i8, ptr %2, align 1
  %8 = sext i8 %7 to i32
  %9 = icmp sle i32 %8, 57
  br label %10

10:                                               ; preds = %6, %1
  %11 = phi i1 [ false, %1 ], [ %9, %6 ]
  ret i1 %11
}

; Function Attrs: mustprogress nounwind uwtable
define linkonce_odr hidden noundef zeroext i1 @_ZN4llvm7isAlphaEc(i8 noundef signext %0) #1 comdat {
  %2 = alloca i8, align 1
  store i8 %0, ptr %2, align 1
  %3 = load i8, ptr %2, align 1
  %4 = call noundef zeroext i1 @_ZN4llvm7isLowerEc(i8 noundef signext %3)
  br i1 %4, label %8, label %5

5:                                                ; preds = %1
  %6 = load i8, ptr %2, align 1
  %7 = call noundef zeroext i1 @_ZN4llvm7isUpperEc(i8 noundef signext %6)
  br label %8

8:                                                ; preds = %5, %1
  %9 = phi i1 [ true, %1 ], [ %7, %5 ]
  ret i1 %9
}

; Function Attrs: mustprogress nounwind uwtable
define linkonce_odr hidden void @_ZN4llvm23SmallVectorTemplateBaseIjLb1EEC2Em(ptr noundef nonnull align 8 dereferenceable(16) %0, i64 noundef %1) unnamed_addr #1 comdat align 2 {
  %3 = alloca ptr, align 8
  %4 = alloca i64, align 8
  store ptr %0, ptr %3, align 8
  store i64 %1, ptr %4, align 8
  %5 = load ptr, ptr %3, align 8
  %6 = load i64, ptr %4, align 8
  call void @_ZN4llvm25SmallVectorTemplateCommonIjvEC2Em(ptr noundef nonnull align 8 dereferenceable(16) %5, i64 noundef %6)
  ret void
}

; Function Attrs: mustprogress nounwind uwtable
define linkonce_odr hidden void @_ZN4llvm15SmallVectorImplIjED2Ev(ptr noundef nonnull align 8 dereferenceable(16) %0) unnamed_addr #1 comdat align 2 {
  %2 = alloca ptr, align 8
  store ptr %0, ptr %2, align 8
  %3 = load ptr, ptr %2, align 8
  %4 = call noundef zeroext i1 @_ZNK4llvm25SmallVectorTemplateCommonIjvE7isSmallEv(ptr noundef nonnull align 8 dereferenceable(16) %3)
  br i1 %4, label %7, label %5

5:                                                ; preds = %1
  %6 = call noundef ptr @_ZN4llvm25SmallVectorTemplateCommonIjvE5beginEv(ptr noundef nonnull align 8 dereferenceable(16) %3)
  call void @free(ptr noundef %6) #2
  br label %7

7:                                                ; preds = %5, %1
  ret void
}

; Function Attrs: mustprogress nounwind uwtable
define linkonce_odr hidden void @_ZN4llvm23SmallVectorTemplateBaseIjLb1EE13destroy_rangeEPjS2_(ptr noundef %0, ptr noundef %1) #1 comdat align 2 {
  %3 = alloca ptr, align 8
  %4 = alloca ptr, align 8
  store ptr %0, ptr %3, align 8
  store ptr %1, ptr %4, align 8
  ret void
}

; Function Attrs: mustprogress nounwind uwtable
define linkonce_odr hidden noundef ptr @_ZN4llvm25SmallVectorTemplateCommonIjvE5beginEv(ptr noundef nonnull align 8 dereferenceable(16) %0) #1 comdat align 2 {
  %2 = alloca ptr, align 8
  store ptr %0, ptr %2, align 8
  %3 = load ptr, ptr %2, align 8
  %4 = getelementptr inbounds nuw %"class.llvm::SmallVectorBase", ptr %3, i32 0, i32 0
  %5 = load ptr, ptr %4, align 8
  ret ptr %5
}

; Function Attrs: mustprogress nounwind uwtable
define linkonce_odr hidden noundef ptr @_ZN4llvm25SmallVectorTemplateCommonIjvE3endEv(ptr noundef nonnull align 8 dereferenceable(16) %0) #1 comdat align 2 {
  %2 = alloca ptr, align 8
  store ptr %0, ptr %2, align 8
  %3 = load ptr, ptr %2, align 8
  %4 = call noundef ptr @_ZN4llvm25SmallVectorTemplateCommonIjvE5beginEv(ptr noundef nonnull align 8 dereferenceable(16) %3)
  %5 = call noundef i64 @_ZNK4llvm15SmallVectorBaseIjE4sizeEv(ptr noundef nonnull align 8 dereferenceable(16) %3)
  %6 = getelementptr inbounds i32, ptr %4, i64 %5
  ret ptr %6
}

; Function Attrs: mustprogress nounwind uwtable
define linkonce_odr hidden noundef ptr @_ZN4llvm23SmallVectorTemplateBaseIjLb1EE28reserveForParamAndGetAddressERjm(ptr noundef nonnull align 8 dereferenceable(16) %0, ptr noundef nonnull align 4 dereferenceable(4) %1, i64 noundef %2) #1 comdat align 2 {
  %4 = alloca ptr, align 8
  %5 = alloca ptr, align 8
  %6 = alloca i64, align 8
  store ptr %0, ptr %4, align 8
  store ptr %1, ptr %5, align 8
  store i64 %2, ptr %6, align 8
  %7 = load ptr, ptr %4, align 8
  %8 = load ptr, ptr %5, align 8
  %9 = load i64, ptr %6, align 8
  %10 = call noundef ptr @_ZN4llvm25SmallVectorTemplateCommonIjvE32reserveForParamAndGetAddressImplINS_23SmallVectorTemplateBaseIjLb1EEEEEPKjPT_RS5_m(ptr noundef %7, ptr noundef nonnull align 4 dereferenceable(4) %8, i64 noundef %9)
  ret ptr %10
}

; Function Attrs: mustprogress nounwind uwtable
define linkonce_odr hidden noundef zeroext i1 @_ZN4llvm7isAlnumEc(i8 noundef signext %0) #1 comdat {
  %2 = alloca i8, align 1
  store i8 %0, ptr %2, align 1
  %3 = load i8, ptr %2, align 1
  %4 = call noundef zeroext i1 @_ZN4llvm7isAlphaEc(i8 noundef signext %3)
  br i1 %4, label %8, label %5

5:                                                ; preds = %1
  %6 = load i8, ptr %2, align 1
  %7 = call noundef zeroext i1 @_ZN4llvm7isDigitEc(i8 noundef signext %6)
  br label %8

8:                                                ; preds = %5, %1
  %9 = phi i1 [ true, %1 ], [ %7, %5 ]
  ret i1 %9
}

; Function Attrs: mustprogress nounwind uwtable
define linkonce_odr hidden void @_ZN4llvm15SmallVectorImplIjEC2Ej(ptr noundef nonnull align 8 dereferenceable(16) %0, i32 noundef %1) unnamed_addr #1 comdat align 2 {
  %3 = alloca ptr, align 8
  %4 = alloca i32, align 4
  store ptr %0, ptr %3, align 8
  store i32 %1, ptr %4, align 4
  %5 = load ptr, ptr %3, align 8
  %6 = load i32, ptr %4, align 4
  %7 = zext i32 %6 to i64
  call void @_ZN4llvm23SmallVectorTemplateBaseIjLb1EEC2Em(ptr noundef nonnull align 8 dereferenceable(16) %5, i64 noundef %7)
  ret void
}

; Function Attrs: mustprogress nounwind uwtable
define linkonce_odr hidden void @_ZN4llvm11SmallVectorIjLj64EED2Ev(ptr noundef nonnull align 8 dereferenceable(272) %0) unnamed_addr #1 comdat align 2 {
  %2 = alloca ptr, align 8
  store ptr %0, ptr %2, align 8
  %3 = load ptr, ptr %2, align 8
  %4 = call noundef ptr @_ZN4llvm25SmallVectorTemplateCommonIjvE5beginEv(ptr noundef nonnull align 8 dereferenceable(16) %3)
  %5 = call noundef ptr @_ZN4llvm25SmallVectorTemplateCommonIjvE3endEv(ptr noundef nonnull align 8 dereferenceable(16) %3)
  call void @_ZN4llvm23SmallVectorTemplateBaseIjLb1EE13destroy_rangeEPjS2_(ptr noundef %4, ptr noundef %5)
  call void @_ZN4llvm15SmallVectorImplIjED2Ev(ptr noundef nonnull align 8 dereferenceable(16) %3) #2
  ret void
}

; Function Attrs: mustprogress nounwind uwtable
define linkonce_odr hidden void @_ZN4llvm23SmallVectorTemplateBaseIjLb1EE9push_backEj(ptr noundef nonnull align 8 dereferenceable(16) %0, i32 noundef %1) #1 comdat align 2 {
  %3 = alloca ptr, align 8
  %4 = alloca i32, align 4
  %5 = alloca ptr, align 8
  store ptr %0, ptr %3, align 8
  store i32 %1, ptr %4, align 4
  %6 = load ptr, ptr %3, align 8
  %7 = call noundef ptr @_ZN4llvm23SmallVectorTemplateBaseIjLb1EE28reserveForParamAndGetAddressERjm(ptr noundef nonnull align 8 dereferenceable(16) %6, ptr noundef nonnull align 4 dereferenceable(4) %4, i64 noundef 1)
  store ptr %7, ptr %5, align 8
  %8 = call noundef ptr @_ZN4llvm25SmallVectorTemplateCommonIjvE3endEv(ptr noundef nonnull align 8 dereferenceable(16) %6)
  %9 = load ptr, ptr %5, align 8
  call void @llvm.memcpy.p0.p0.i64(ptr align 1 %8, ptr align 4 %9, i64 4, i1 false)
  %10 = call noundef i64 @_ZNK4llvm15SmallVectorBaseIjE4sizeEv(ptr noundef nonnull align 8 dereferenceable(16) %6)
  %11 = add i64 %10, 1
  call void @_ZN4llvm15SmallVectorBaseIjE8set_sizeEm(ptr noundef nonnull align 8 dereferenceable(16) %6, i64 noundef %11)
  ret void
}

; Function Attrs: mustprogress nounwind uwtable
define linkonce_odr hidden noundef zeroext i1 @_ZN4llvm15BitCodeAbbrevOp7isChar6Ec(i8 noundef signext %0) #1 comdat align 2 {
  %2 = alloca i8, align 1
  store i8 %0, ptr %2, align 1
  %3 = load i8, ptr %2, align 1
  %4 = call noundef zeroext i1 @_ZN4llvm7isAlnumEc(i8 noundef signext %3)
  br i1 %4, label %13, label %5

5:                                                ; preds = %1
  %6 = load i8, ptr %2, align 1
  %7 = sext i8 %6 to i32
  %8 = icmp eq i32 %7, 46
  br i1 %8, label %13, label %9

9:                                                ; preds = %5
  %10 = load i8, ptr %2, align 1
  %11 = sext i8 %10 to i32
  %12 = icmp eq i32 %11, 95
  br label %13

13:                                               ; preds = %9, %5, %1
  %14 = phi i1 [ true, %5 ], [ true, %1 ], [ %12, %9 ]
  ret i1 %14
}

; Function Attrs: mustprogress nounwind uwtable
define linkonce_odr hidden noundef ptr @_ZNK4llvm9StringRef3endEv(ptr noundef nonnull align 8 dereferenceable(16) %0) #1 comdat align 2 {
  %2 = alloca ptr, align 8
  store ptr %0, ptr %2, align 8
  %3 = load ptr, ptr %2, align 8
  %4 = getelementptr inbounds nuw %"class.llvm::StringRef", ptr %3, i32 0, i32 0
  %5 = load ptr, ptr %4, align 8
  %6 = getelementptr inbounds nuw %"class.llvm::StringRef", ptr %3, i32 0, i32 1
  %7 = load i64, ptr %6, align 8
  %8 = getelementptr inbounds i8, ptr %5, i64 %7
  ret ptr %8
}

; Function Attrs: mustprogress nounwind uwtable
define linkonce_odr hidden noundef ptr @_ZNK4llvm9StringRef5beginEv(ptr noundef nonnull align 8 dereferenceable(16) %0) #1 comdat align 2 {
  %2 = alloca ptr, align 8
  store ptr %0, ptr %2, align 8
  %3 = load ptr, ptr %2, align 8
  %4 = getelementptr inbounds nuw %"class.llvm::StringRef", ptr %3, i32 0, i32 0
  %5 = load ptr, ptr %4, align 8
  ret ptr %5
}

; Function Attrs: mustprogress nounwind uwtable
define linkonce_odr hidden void @_ZN4llvm11SmallVectorIjLj64EEC2Ev(ptr noundef nonnull align 8 dereferenceable(272) %0) unnamed_addr #1 comdat align 2 {
  %2 = alloca ptr, align 8
  store ptr %0, ptr %2, align 8
  %3 = load ptr, ptr %2, align 8
  call void @_ZN4llvm15SmallVectorImplIjEC2Ej(ptr noundef nonnull align 8 dereferenceable(16) %3, i32 noundef 64)
  ret void
}

; Function Attrs: mustprogress nounwind uwtable
define internal void @_ZL17writeStringRecordRN4llvm15BitstreamWriterEjNS_9StringRefEj(ptr noundef nonnull align 8 dereferenceable(152) %0, i32 noundef %1, ptr %2, i64 %3, i32 noundef %4) #1 {
  %6 = alloca %"class.llvm::StringRef", align 8
  %7 = alloca ptr, align 8
  %8 = alloca i32, align 4
  %9 = alloca i32, align 4
  %10 = alloca %"class.llvm::SmallVector.415", align 8
  %11 = alloca ptr, align 8
  %12 = alloca ptr, align 8
  %13 = alloca ptr, align 8
  %14 = alloca i8, align 1
  %15 = getelementptr inbounds nuw { ptr, i64 }, ptr %6, i32 0, i32 0
  store ptr %2, ptr %15, align 8
  %16 = getelementptr inbounds nuw { ptr, i64 }, ptr %6, i32 0, i32 1
  store i64 %3, ptr %16, align 8
  store ptr %0, ptr %7, align 8
  store i32 %1, ptr %8, align 4
  store i32 %4, ptr %9, align 4
  call void @_ZN4llvm11SmallVectorIjLj64EEC2Ev(ptr noundef nonnull align 8 dereferenceable(272) %10)
  store ptr %6, ptr %11, align 8
  %17 = load ptr, ptr %11, align 8
  %18 = call noundef ptr @_ZNK4llvm9StringRef5beginEv(ptr noundef nonnull align 8 dereferenceable(16) %17)
  store ptr %18, ptr %12, align 8
  %19 = load ptr, ptr %11, align 8
  %20 = call noundef ptr @_ZNK4llvm9StringRef3endEv(ptr noundef nonnull align 8 dereferenceable(16) %19)
  store ptr %20, ptr %13, align 8
  br label %21

21:                                               ; preds = %37, %5
  %22 = load ptr, ptr %12, align 8
  %23 = load ptr, ptr %13, align 8
  %24 = icmp ne ptr %22, %23
  br i1 %24, label %25, label %40

25:                                               ; preds = %21
  %26 = load ptr, ptr %12, align 8
  %27 = load i8, ptr %26, align 1
  store i8 %27, ptr %14, align 1
  %28 = load i32, ptr %9, align 4
  %29 = icmp ne i32 %28, 0
  br i1 %29, label %30, label %34

30:                                               ; preds = %25
  %31 = load i8, ptr %14, align 1
  %32 = call noundef zeroext i1 @_ZN4llvm15BitCodeAbbrevOp7isChar6Ec(i8 noundef signext %31)
  br i1 %32, label %34, label %33

33:                                               ; preds = %30
  store i32 0, ptr %9, align 4
  br label %34

34:                                               ; preds = %33, %30, %25
  %35 = load i8, ptr %14, align 1
  %36 = sext i8 %35 to i32
  call void @_ZN4llvm23SmallVectorTemplateBaseIjLb1EE9push_backEj(ptr noundef nonnull align 8 dereferenceable(16) %10, i32 noundef %36)
  br label %37

37:                                               ; preds = %34
  %38 = load ptr, ptr %12, align 8
  %39 = getelementptr inbounds i8, ptr %38, i32 1
  store ptr %39, ptr %12, align 8
  br label %21

40:                                               ; preds = %21
  %41 = load ptr, ptr %7, align 8
  %42 = load i32, ptr %8, align 4
  %43 = load i32, ptr %9, align 4
  call void @_ZN4llvm15BitstreamWriter10EmitRecordINS_11SmallVectorIjLj64EEEEEvjRKT_j(ptr noundef nonnull align 8 dereferenceable(152) %41, i32 noundef %42, ptr noundef nonnull align 8 dereferenceable(272) %10, i32 noundef %43)
  call void @_ZN4llvm11SmallVectorIjLj64EED2Ev(ptr noundef nonnull align 8 dereferenceable(272) %10) #2
  ret void
}