; Function Attrs: mustprogress nounwind uwtable
define internal fastcc void @_ZL17writeStringRecordRN4llvm15BitstreamWriterEjNS_9StringRefEj(ptr noundef nonnull align 8 dereferenceable(152) %0, i32 noundef %1, ptr readonly %2, i64 %3, i32 noundef %4) unnamed_addr #0 {
  %6 = alloca %"class.llvm::SmallVector.415", align 8
  %7 = getelementptr inbounds i8, ptr %6, i64 16
  call void @_ZN4llvm15SmallVectorBaseIjEC2EPvm(ptr noundef nonnull align 8 dereferenceable(16) %6, ptr noundef nonnull %7, i64 noundef 64) #27
  %8 = getelementptr inbounds i8, ptr %2, i64 %3
  %.not14 = icmp eq i64 %3, 0
  br i1 %.not14, label %._crit_edge, label %.lr.ph

.lr.ph:                                           ; preds = %5, %_ZN4llvm23SmallVectorTemplateBaseIjLb1EE9push_backEj.exit
  %.016 = phi i32 [ %.1, %_ZN4llvm23SmallVectorTemplateBaseIjLb1EE9push_backEj.exit ], [ %4, %5 ]
  %.01115 = phi ptr [ %30, %_ZN4llvm23SmallVectorTemplateBaseIjLb1EE9push_backEj.exit ], [ %2, %5 ]
  %9 = load i8, ptr %.01115, align 1
  %.not12 = icmp eq i32 %.016, 0
  br i1 %.not12, label %19, label %10

10:                                               ; preds = %.lr.ph
  %11 = and i8 %9, -33
  %12 = add i8 %11, -65
  %13 = icmp ult i8 %12, 26
  %14 = add i8 %9, -48
  %15 = icmp ult i8 %14, 10
  %16 = or i1 %15, %13
  %17 = icmp eq i8 %9, 46
  %or.cond.i = or i1 %17, %16
  %18 = icmp eq i8 %9, 95
  %spec.select.i = or i1 %18, %or.cond.i
  %spec.select = select i1 %spec.select.i, i32 %.016, i32 0
  br label %19

19:                                               ; preds = %10, %.lr.ph
  %.1 = phi i32 [ 0, %.lr.ph ], [ %spec.select, %10 ]
  %20 = sext i8 %9 to i32
  %21 = call noundef i64 @_ZNK4llvm15SmallVectorBaseIjE4sizeEv(ptr noundef nonnull align 8 dereferenceable(16) %6) #27
  %22 = add i64 %21, 1
  %23 = call noundef i64 @_ZNK4llvm15SmallVectorBaseIjE8capacityEv(ptr noundef nonnull align 8 dereferenceable(16) %6) #27
  %.not.i.i.i = icmp ugt i64 %22, %23
  br i1 %.not.i.i.i, label %24, label %_ZN4llvm23SmallVectorTemplateBaseIjLb1EE9push_backEj.exit

24:                                               ; preds = %19
  call void @_ZN4llvm15SmallVectorBaseIjE8grow_podEPvmm(ptr noundef nonnull align 8 dereferenceable(16) %6, ptr noundef nonnull %7, i64 noundef %22, i64 noundef 4) #27
  br label %_ZN4llvm23SmallVectorTemplateBaseIjLb1EE9push_backEj.exit

_ZN4llvm23SmallVectorTemplateBaseIjLb1EE9push_backEj.exit: ; preds = %19, %24
  %25 = load ptr, ptr %6, align 8
  %26 = call noundef i64 @_ZNK4llvm15SmallVectorBaseIjE4sizeEv(ptr noundef nonnull align 8 dereferenceable(16) %6) #27
  %27 = getelementptr inbounds i32, ptr %25, i64 %26
  store i32 %20, ptr %27, align 1
  %28 = call noundef i64 @_ZNK4llvm15SmallVectorBaseIjE4sizeEv(ptr noundef nonnull align 8 dereferenceable(16) %6) #27
  %29 = add i64 %28, 1
  call void @_ZN4llvm15SmallVectorBaseIjE8set_sizeEm(ptr noundef nonnull align 8 dereferenceable(16) %6, i64 noundef %29) #27
  %30 = getelementptr inbounds i8, ptr %.01115, i64 1
  %.not = icmp eq ptr %30, %8
  br i1 %.not, label %._crit_edge, label %.lr.ph

._crit_edge:                                      ; preds = %_ZN4llvm23SmallVectorTemplateBaseIjLb1EE9push_backEj.exit, %5
  %.0.lcssa = phi i32 [ %4, %5 ], [ %.1, %_ZN4llvm23SmallVectorTemplateBaseIjLb1EE9push_backEj.exit ]
  call void @_ZN4llvm15BitstreamWriter10EmitRecordINS_11SmallVectorIjLj64EEEEEvjRKT_j(ptr noundef nonnull align 8 dereferenceable(152) %0, i32 noundef %1, ptr noundef nonnull align 8 dereferenceable(272) %6, i32 noundef %.0.lcssa)
  %31 = call noundef i64 @_ZNK4llvm15SmallVectorBaseIjE4sizeEv(ptr noundef nonnull align 8 dereferenceable(16) %6) #27
  %32 = load ptr, ptr %6, align 8
  %33 = icmp eq ptr %32, %7
  br i1 %33, label %_ZN4llvm11SmallVectorIjLj64EED2Ev.exit, label %34

34:                                               ; preds = %._crit_edge
  call void @free(ptr noundef %32) #27
  br label %_ZN4llvm11SmallVectorIjLj64EED2Ev.exit

_ZN4llvm11SmallVectorIjLj64EED2Ev.exit:           ; preds = %._crit_edge, %34
  ret void
}